target datalayout = "e-m:e-p270:32:32-p271:32:32-p272:64:64-i64:64-i128:128-f80:128-n8:16:32:64-S128"
target triple = "x86_64-pc-linux-gnu"

%struct.Cof_Obj_t_ = type { i32, i32, i32, i32, i32, i32, [0 x %struct.Cof_Fan_t_] }
%struct.Cof_Fan_t_ = type { i32 }

; Function Attrs: inlinehint nounwind uwtable
define internal ptr @Cof_ObjFanin(ptr noundef %0, i32 noundef %1) #3 {
  %3 = alloca ptr, align 8
  %4 = alloca i32, align 4
  store ptr %0, ptr %3, align 8, !tbaa !42
  store i32 %1, ptr %4, align 4, !tbaa !8
  %5 = load ptr, ptr %3, align 8, !tbaa !42
  %6 = load ptr, ptr %3, align 8, !tbaa !42
  %7 = getelementptr inbounds nuw %struct.Cof_Obj_t_, ptr %6, i32 0, i32 6
  %8 = load i32, ptr %4, align 4, !tbaa !8
  %9 = sext i32 %8 to i64
  %10 = getelementptr inbounds [0 x %struct.Cof_Fan_t_], ptr %7, i64 0, i64 %9
  %11 = load i32, ptr %10, align 4
  %12 = and i32 %11, 2147483647
  %13 = sext i32 %12 to i64
  %14 = sub i64 0, %13
  %15 = getelementptr inbounds i32, ptr %5, i64 %14
  ret ptr %15
}

; Function Attrs: nounwind uwtable
define i32 @Cof_NodeRef_rec(ptr noundef %0) #0 {
  %2 = alloca i32, align 4
  %3 = alloca ptr, align 8
  store ptr %0, ptr %3, align 8, !tbaa !42
  %4 = load ptr, ptr %3, align 8, !tbaa !42
  %5 = load i32, ptr %4, align 4
  %6 = lshr i32 %5, 4
  %7 = and i32 %6, 15
  %8 = icmp eq i32 %7, 0
  br i1 %8, label %9, label %10

9:                                                ; preds = %1
  store i32 0, ptr %2, align 4
  br label %31

10:                                               ; preds = %1
  %11 = load ptr, ptr %3, align 8, !tbaa !42
  %12 = load i32, ptr %11, align 4
  %13 = lshr i32 %12, 8
  %14 = add i32 %13, 1
  %15 = load i32, ptr %11, align 4
  %16 = and i32 %14, 16777215
  %17 = shl i32 %16, 8
  %18 = and i32 %15, 255
  %19 = or i32 %18, %17
  store i32 %19, ptr %11, align 4
  %20 = icmp ugt i32 %13, 0
  br i1 %20, label %21, label %22

21:                                               ; preds = %10
  store i32 0, ptr %2, align 4
  br label %31

22:                                               ; preds = %10
  %23 = load ptr, ptr %3, align 8, !tbaa !42
  %24 = call ptr @Cof_ObjFanin(ptr noundef %23, i32 noundef 0)
  %25 = call i32 @Cof_NodeRef_rec(ptr noundef %24)
  %26 = add nsw i32 1, %25
  %27 = load ptr, ptr %3, align 8, !tbaa !42
  %28 = call ptr @Cof_ObjFanin(ptr noundef %27, i32 noundef 1)
  %29 = call i32 @Cof_NodeRef_rec(ptr noundef %28)
  %30 = add nsw i32 %26, %29
  store i32 %30, ptr %2, align 4
  br label %31

31:                                               ; preds = %22, %21, %9
  %32 = load i32, ptr %2, align 4
  ret i32 %32
}