; Function Attrs: nofree nosync nounwind memory(argmem: readwrite) uwtable
define i32 @Cof_NodeRef_rec(ptr noundef captures(none) %0) local_unnamed_addr #6 {
  %2 = load i32, ptr %0, align 4
  %3 = and i32 %2, 240
  %4 = icmp eq i32 %3, 0
  br i1 %4, label %._crit_edge, label %.lr.ph

.lr.ph:                                           ; preds = %1, %tailrecurse
  %5 = phi i32 [ %25, %tailrecurse ], [ %2, %1 ]
  %.tr5 = phi ptr [ %22, %tailrecurse ], [ %0, %1 ]
  %accumulator.tr4 = phi i32 [ %24, %tailrecurse ], [ 0, %1 ]
  %6 = and i32 %5, -256
  %7 = add i32 %6, 256
  %8 = and i32 %5, 255
  %9 = or disjoint i32 %7, %8
  store i32 %9, ptr %.tr5, align 4
  %.not = icmp ult i32 %5, 256
  br i1 %.not, label %tailrecurse, label %._crit_edge

tailrecurse:                                      ; preds = %.lr.ph
  %10 = getelementptr inbounds nuw i8, ptr %.tr5, i64 24
  %11 = load i32, ptr %10, align 4
  %12 = and i32 %11, 2147483647
  %13 = zext nneg i32 %12 to i64
  %14 = sub nsw i64 0, %13
  %15 = getelementptr inbounds i32, ptr %.tr5, i64 %14
  %16 = tail call i32 @Cof_NodeRef_rec(ptr noundef nonnull %15)
  %17 = getelementptr inbounds nuw i8, ptr %.tr5, i64 28
  %18 = load i32, ptr %17, align 4
  %19 = and i32 %18, 2147483647
  %20 = zext nneg i32 %19 to i64
  %21 = sub nsw i64 0, %20
  %22 = getelementptr inbounds i32, ptr %.tr5, i64 %21
  %23 = add i32 %accumulator.tr4, 1
  %24 = add i32 %23, %16
  %25 = load i32, ptr %22, align 4
  %26 = and i32 %25, 240
  %27 = icmp eq i32 %26, 0
  br i1 %27, label %._crit_edge, label %.lr.ph

._crit_edge:                                      ; preds = %tailrecurse, %.lr.ph, %1
  %accumulator.tr.lcssa = phi i32 [ 0, %1 ], [ %accumulator.tr4, %.lr.ph ], [ %24, %tailrecurse ]
  ret i32 %accumulator.tr.lcssa
}